target datalayout = "e-m:e-p270:32:32-p271:32:32-p272:64:64-i64:64-i128:128-f80:128-n8:16:32:64-S128"
target triple = "x86_64-pc-linux-gnu"

%struct.evp_test_st = type { %struct.stanza_st, ptr, i32, ptr, ptr, ptr, ptr, ptr, ptr, i32 }
%struct.stanza_st = type { ptr, ptr, i32, i32, i32, i32, i32, i32, [150 x %struct.pair_st], ptr, [32768 x i8] }
%struct.pair_st = type { ptr, ptr }
%struct.mac_data_st = type { ptr, ptr, i32, ptr, ptr, i64, ptr, i64, ptr, i64, ptr, i64, ptr, i64, ptr, i64, i32, i32, ptr, i32, i32 }

@.str.29 = private unnamed_addr constant [27 x i8] c"../openssl/test/evp_test.c\00", align 1

; Function Attrs: inlinehint nounwind uwtable
define internal ptr @ossl_check_OPENSSL_STRING_freefunc_type(ptr noundef %0) #5 {
  %2 = alloca ptr, align 8
  store ptr %0, ptr %2, align 8, !tbaa !97
  %3 = load ptr, ptr %2, align 8, !tbaa !97
  ret ptr %3
}

; Function Attrs: inlinehint nounwind uwtable
define internal ptr @ossl_check_OPENSSL_STRING_sk_type(ptr noundef %0) #5 {
  %2 = alloca ptr, align 8
  store ptr %0, ptr %2, align 8, !tbaa !131
  %3 = load ptr, ptr %2, align 8, !tbaa !131
  ret ptr %3
}

; Function Attrs: nounwind uwtable
define internal void @mac_test_cleanup(ptr noundef %0) #0 {
  %2 = alloca ptr, align 8
  %3 = alloca ptr, align 8
  store ptr %0, ptr %2, align 8, !tbaa !15
  call void @llvm.lifetime.start.p0(i64 8, ptr %3) #10
  %4 = load ptr, ptr %2, align 8, !tbaa !15
  %5 = getelementptr inbounds nuw %struct.evp_test_st, ptr %4, i32 0, i32 8
  %6 = load ptr, ptr %5, align 8, !tbaa !66
  store ptr %6, ptr %3, align 8, !tbaa !298
  %7 = load ptr, ptr %3, align 8, !tbaa !298
  %8 = getelementptr inbounds nuw %struct.mac_data_st, ptr %7, i32 0, i32 1
  %9 = load ptr, ptr %8, align 8, !tbaa !303
  call void @EVP_MAC_free(ptr noundef %9)
  %10 = load ptr, ptr %3, align 8, !tbaa !298
  %11 = getelementptr inbounds nuw %struct.mac_data_st, ptr %10, i32 0, i32 0
  %12 = load ptr, ptr %11, align 8, !tbaa !302
  call void @CRYPTO_free(ptr noundef %12, ptr noundef @.str.29, i32 noundef 1663)
  %13 = load ptr, ptr %3, align 8, !tbaa !298
  %14 = getelementptr inbounds nuw %struct.mac_data_st, ptr %13, i32 0, i32 18
  %15 = load ptr, ptr %14, align 8, !tbaa !304
  %16 = call ptr @ossl_check_OPENSSL_STRING_sk_type(ptr noundef %15)
  %17 = call ptr @ossl_check_OPENSSL_STRING_freefunc_type(ptr noundef @openssl_free)
  call void @OPENSSL_sk_pop_free(ptr noundef %16, ptr noundef %17)
  %18 = load ptr, ptr %3, align 8, !tbaa !298
  %19 = getelementptr inbounds nuw %struct.mac_data_st, ptr %18, i32 0, i32 3
  %20 = load ptr, ptr %19, align 8, !tbaa !307
  call void @CRYPTO_free(ptr noundef %20, ptr noundef @.str.29, i32 noundef 1665)
  %21 = load ptr, ptr %3, align 8, !tbaa !298
  %22 = getelementptr inbounds nuw %struct.mac_data_st, ptr %21, i32 0, i32 4
  %23 = load ptr, ptr %22, align 8, !tbaa !308
  call void @CRYPTO_free(ptr noundef %23, ptr noundef @.str.29, i32 noundef 1666)
  %24 = load ptr, ptr %3, align 8, !tbaa !298
  %25 = getelementptr inbounds nuw %struct.mac_data_st, ptr %24, i32 0, i32 6
  %26 = load ptr, ptr %25, align 8, !tbaa !309
  call void @CRYPTO_free(ptr noundef %26, ptr noundef @.str.29, i32 noundef 1667)
  %27 = load ptr, ptr %3, align 8, !tbaa !298
  %28 = getelementptr inbounds nuw %struct.mac_data_st, ptr %27, i32 0, i32 12
  %29 = load ptr, ptr %28, align 8, !tbaa !310
  call void @CRYPTO_free(ptr noundef %29, ptr noundef @.str.29, i32 noundef 1668)
  %30 = load ptr, ptr %3, align 8, !tbaa !298
  %31 = getelementptr inbounds nuw %struct.mac_data_st, ptr %30, i32 0, i32 14
  %32 = load ptr, ptr %31, align 8, !tbaa !311
  call void @CRYPTO_free(ptr noundef %32, ptr noundef @.str.29, i32 noundef 1669)
  %33 = load ptr, ptr %3, align 8, !tbaa !298
  %34 = getelementptr inbounds nuw %struct.mac_data_st, ptr %33, i32 0, i32 8
  %35 = load ptr, ptr %34, align 8, !tbaa !312
  call void @CRYPTO_free(ptr noundef %35, ptr noundef @.str.29, i32 noundef 1670)
  %36 = load ptr, ptr %3, align 8, !tbaa !298
  %37 = getelementptr inbounds nuw %struct.mac_data_st, ptr %36, i32 0, i32 10
  %38 = load ptr, ptr %37, align 8, !tbaa !313
  call void @CRYPTO_free(ptr noundef %38, ptr noundef @.str.29, i32 noundef 1671)
  call void @llvm.lifetime.end.p0(i64 8, ptr %3) #10
  ret void
}