; Function Attrs: nounwind uwtable
define internal void @mac_test_cleanup(ptr noundef readonly captures(none) %0) #1 {
  %2 = getelementptr inbounds nuw i8, ptr %0, i64 35272
  %3 = load ptr, ptr %2, align 8, !tbaa !20
  %4 = getelementptr inbounds nuw i8, ptr %3, i64 8
  %5 = load ptr, ptr %4, align 8, !tbaa !244
  tail call void @EVP_MAC_free(ptr noundef %5) #10
  %6 = load ptr, ptr %3, align 8, !tbaa !243
  tail call void @CRYPTO_free(ptr noundef %6, ptr noundef nonnull @.str.29, i32 noundef 1663) #10
  %7 = getelementptr inbounds nuw i8, ptr %3, i64 136
  %8 = load ptr, ptr %7, align 8, !tbaa !245
  tail call void @OPENSSL_sk_pop_free(ptr noundef %8, ptr noundef nonnull @openssl_free) #10
  %9 = getelementptr inbounds nuw i8, ptr %3, i64 24
  %10 = load ptr, ptr %9, align 8, !tbaa !248
  tail call void @CRYPTO_free(ptr noundef %10, ptr noundef nonnull @.str.29, i32 noundef 1665) #10
  %11 = getelementptr inbounds nuw i8, ptr %3, i64 32
  %12 = load ptr, ptr %11, align 8, !tbaa !249
  tail call void @CRYPTO_free(ptr noundef %12, ptr noundef nonnull @.str.29, i32 noundef 1666) #10
  %13 = getelementptr inbounds nuw i8, ptr %3, i64 48
  %14 = load ptr, ptr %13, align 8, !tbaa !250
  tail call void @CRYPTO_free(ptr noundef %14, ptr noundef nonnull @.str.29, i32 noundef 1667) #10
  %15 = getelementptr inbounds nuw i8, ptr %3, i64 96
  %16 = load ptr, ptr %15, align 8, !tbaa !251
  tail call void @CRYPTO_free(ptr noundef %16, ptr noundef nonnull @.str.29, i32 noundef 1668) #10
  %17 = getelementptr inbounds nuw i8, ptr %3, i64 112
  %18 = load ptr, ptr %17, align 8, !tbaa !252
  tail call void @CRYPTO_free(ptr noundef %18, ptr noundef nonnull @.str.29, i32 noundef 1669) #10
  %19 = getelementptr inbounds nuw i8, ptr %3, i64 64
  %20 = load ptr, ptr %19, align 8, !tbaa !253
  tail call void @CRYPTO_free(ptr noundef %20, ptr noundef nonnull @.str.29, i32 noundef 1670) #10
  %21 = getelementptr inbounds nuw i8, ptr %3, i64 80
  %22 = load ptr, ptr %21, align 8, !tbaa !254
  tail call void @CRYPTO_free(ptr noundef %22, ptr noundef nonnull @.str.29, i32 noundef 1671) #10
  ret void
}